(dp1
S'output'
p2
S"<type 'exceptions.TypeError'> <Rows (1)> is not JSON serializable"
p3
sS'layer'
p4
S'/vagrant/web2py/applications/utility/controllers/default.py'
p5
sS'code'
p6
S'# -*- coding: utf-8 -*-\n# this file is released under public domain and you can use without limitations\n\n# -------------------------------------------------------------------------\n# This is a sample controller\n# - index is the default action of any application\n# - user is required for authentication and authorization\n# - download is for downloading files uploaded in the db (does streaming)\n# -------------------------------------------------------------------------\n\n\ndef index():\n    """\n    example action using the internationalization operator T and flash\n    rendered by views/default/index.html or views/generic.html\n\n    if you need a simple wiki simply replace the two lines below with:\n    return auth.wiki()\n    """\n    response.flash = T("Hello World")\n    return dict(message=T(\'Welcome to web2py!\'))\n\n\ndef user():\n    """\n    exposes:\n    http://..../[app]/default/user/login\n    http://..../[app]/default/user/logout\n    http://..../[app]/default/user/register\n    http://..../[app]/default/user/profile\n    http://..../[app]/default/user/retrieve_password\n    http://..../[app]/default/user/change_password\n    http://..../[app]/default/user/bulk_register\n    use @auth.requires_login()\n        @auth.requires_membership(\'group name\')\n        @auth.requires_permission(\'read\',\'table name\',record_id)\n    to decorate functions that need access control\n    also notice there is http://..../[app]/appadmin/manage/auth to allow administrator to manage users\n    """\n    return dict(form=auth())\n\n\n@cache.action()\ndef download():\n    """\n    allows downloading of uploaded files\n    http://..../[app]/default/download/[filename]\n    """\n    return response.download(request, db)\n\n\ndef call():\n    """\n    exposes services. for example:\n    http://..../[app]/default/call/jsonrpc\n    decorate with @services.jsonrpc the functions to expose\n    supports xml, json, xmlrpc, jsonrpc, amfrpc, rss, csv\n    """\n    return service()\n\n\ndef wh_attr():\n    response.headers[\'Access-Control-Allow-Origin\'] = \'*\'\n    import json\n\n    args = request.args\n    if args:\n        wdpaid = args[0]\n        rows = db(db.wh.wdpaid == wdpaid).select()\n    else:\n        rows = []\n    return json.dumps(rows)\n#     wdpaid = request.args[0]\n#     en_name = db(db.wh.wdpaid==wdpaid).select().first()\n#     return dict(en_name = en_name)\nresponse._vars=response._caller(wh_attr)\n'
p7
sS'snapshot'
p8
(dp9
sS'traceback'
p10
S'Traceback (most recent call last):\n  File "/vagrant/web2py/gluon/restricted.py", line 227, in restricted\n    exec ccode in environment\n  File "/vagrant/web2py/applications/utility/controllers/default.py", line 76, in <module>\n  File "/vagrant/web2py/gluon/globals.py", line 411, in <lambda>\n    self._caller = lambda f: f()\n  File "/vagrant/web2py/applications/utility/controllers/default.py", line 72, in wh_attr\n    return json.dumps(rows)\n  File "/usr/lib/python2.7/json/__init__.py", line 243, in dumps\n    return _default_encoder.encode(obj)\n  File "/usr/lib/python2.7/json/encoder.py", line 207, in encode\n    chunks = self.iterencode(o, _one_shot=True)\n  File "/usr/lib/python2.7/json/encoder.py", line 270, in iterencode\n    return _iterencode(o, 0)\n  File "/usr/lib/python2.7/json/encoder.py", line 184, in default\n    raise TypeError(repr(o) + " is not JSON serializable")\nTypeError: <Rows (1)> is not JSON serializable\n'
p11
s.